target datalayout = "e-m:e-p270:32:32-p271:32:32-p272:64:64-i64:64-i128:128-f80:128-n8:16:32:64-S128"
target triple = "x86_64-pc-linux-gnu"

%struct.nghttp2_frame_hd = type { i64, i32, i8, i8, i8 }

; Function Attrs: nounwind uwtable
define hidden void @nghttp2_frame_unpack_frame_hd(ptr noundef %0, ptr noundef %1) #0 {
  %3 = alloca ptr, align 8
  %4 = alloca ptr, align 8
  store ptr %0, ptr %3, align 8, !tbaa !8
  store ptr %1, ptr %4, align 8, !tbaa !3
  %5 = load ptr, ptr %4, align 8, !tbaa !3
  %6 = getelementptr inbounds i8, ptr %5, i64 0
  %7 = call i32 @nghttp2_get_uint32(ptr noundef %6)
  %8 = lshr i32 %7, 8
  %9 = zext i32 %8 to i64
  %10 = load ptr, ptr %3, align 8, !tbaa !8
  %11 = getelementptr inbounds nuw %struct.nghttp2_frame_hd, ptr %10, i32 0, i32 0
  store i64 %9, ptr %11, align 8, !tbaa !9
  %12 = load ptr, ptr %4, align 8, !tbaa !3
  %13 = getelementptr inbounds i8, ptr %12, i64 3
  %14 = load i8, ptr %13, align 1, !tbaa !14
  %15 = load ptr, ptr %3, align 8, !tbaa !8
  %16 = getelementptr inbounds nuw %struct.nghttp2_frame_hd, ptr %15, i32 0, i32 2
  store i8 %14, ptr %16, align 4, !tbaa !13
  %17 = load ptr, ptr %4, align 8, !tbaa !3
  %18 = getelementptr inbounds i8, ptr %17, i64 4
  %19 = load i8, ptr %18, align 1, !tbaa !14
  %20 = load ptr, ptr %3, align 8, !tbaa !8
  %21 = getelementptr inbounds nuw %struct.nghttp2_frame_hd, ptr %20, i32 0, i32 3
  store i8 %19, ptr %21, align 1, !tbaa !15
  %22 = load ptr, ptr %4, align 8, !tbaa !3
  %23 = getelementptr inbounds i8, ptr %22, i64 5
  %24 = call i32 @nghttp2_get_uint32(ptr noundef %23)
  %25 = and i32 %24, 2147483647
  %26 = load ptr, ptr %3, align 8, !tbaa !8
  %27 = getelementptr inbounds nuw %struct.nghttp2_frame_hd, ptr %26, i32 0, i32 1
  store i32 %25, ptr %27, align 8, !tbaa !16
  %28 = load ptr, ptr %3, align 8, !tbaa !8
  %29 = getelementptr inbounds nuw %struct.nghttp2_frame_hd, ptr %28, i32 0, i32 4
  store i8 0, ptr %29, align 2, !tbaa !17
  ret void
}