; Function Attrs: nounwind uwtable
define hidden void @nghttp2_frame_unpack_frame_hd(ptr noundef writeonly captures(none) initializes((0, 15)) %0, ptr noundef %1) local_unnamed_addr #0 {
  %3 = tail call i32 @nghttp2_get_uint32(ptr noundef %1) #18
  %4 = lshr i32 %3, 8
  %5 = zext nneg i32 %4 to i64
  store i64 %5, ptr %0, align 8, !tbaa !3
  %6 = getelementptr inbounds nuw i8, ptr %1, i64 3
  %7 = load i8, ptr %6, align 1, !tbaa !10
  %8 = getelementptr inbounds nuw i8, ptr %0, i64 12
  store i8 %7, ptr %8, align 4, !tbaa !9
  %9 = getelementptr inbounds nuw i8, ptr %1, i64 4
  %10 = load i8, ptr %9, align 1, !tbaa !10
  %11 = getelementptr inbounds nuw i8, ptr %0, i64 13
  store i8 %10, ptr %11, align 1, !tbaa !11
  %12 = getelementptr inbounds nuw i8, ptr %1, i64 5
  %13 = tail call i32 @nghttp2_get_uint32(ptr noundef nonnull %12) #18
  %14 = and i32 %13, 2147483647
  %15 = getelementptr inbounds nuw i8, ptr %0, i64 8
  store i32 %14, ptr %15, align 8, !tbaa !12
  %16 = getelementptr inbounds nuw i8, ptr %0, i64 14
  store i8 0, ptr %16, align 2, !tbaa !13
  ret void
}